; Function Attrs: nounwind uwtable
define hidden i32 @dissect_DEVMODE_CTR(ptr noundef %0, i32 noundef %1, ptr noundef %2, ptr noundef %3, ptr noundef %4, ptr noundef %5) local_unnamed_addr #0 {
  %7 = alloca i32, align 4
  %8 = load i32, ptr @ett_DEVMODE_CTR, align 4
  %9 = tail call ptr @proto_tree_add_subtree(ptr noundef %3, ptr noundef %0, i32 noundef %1, i32 noundef 0, i32 noundef %8, ptr noundef null, ptr noundef nonnull @.str.1) #5
  %10 = load i32, ptr @hf_devmodectr_size, align 4
  %11 = call i32 @dissect_ndr_uint32(ptr noundef %0, i32 noundef %1, ptr noundef %2, ptr noundef %9, ptr noundef %4, ptr noundef %5, i32 noundef %10, ptr noundef nonnull %7) #5
  %12 = call i32 @dissect_ndr_pointer(ptr noundef %0, i32 noundef %11, ptr noundef %2, ptr noundef %9, ptr noundef %4, ptr noundef %5, ptr noundef nonnull @dissect_DEVMODE, i32 noundef 2, ptr noundef nonnull @.str.2, i32 noundef -1) #5
  ret i32 %12
}